(dp0
S'/Users/lolium/SEttlers-of-Apocalypse/data/bar.png'
p1
I1355950772
sS'/Users/lolium/SEttlers-of-Apocalypse/data/Fonts/arial14.gxfont'
p2
I1346986168
sS'/Users/lolium/SEttlers-of-Apocalypse/data/.DS_Store'
p3
I1355948652
sS'/Users/lolium/SEttlers-of-Apocalypse/data/standardbg.png'
p4
I1355816321
sS'/Users/lolium/SEttlers-of-Apocalypse/data/Fonts/48.tga'
p5
I1355949184
sS'/Users/lolium/SEttlers-of-Apocalypse/data/Fonts/48.gxfont'
p6
I1355949184
sS'/Users/lolium/SEttlers-of-Apocalypse/data/Iw2DStrings.group.bin'
p7
I1355983197
sS'/Users/lolium/SEttlers-of-Apocalypse/data/Fonts/arial14.tga'
p8
I1346986168
sS'/Users/lolium/SEttlers-of-Apocalypse/data/Image.bmp'
p9
I1346986168
sS'/Users/lolium/SEttlers-of-Apocalypse/data/Waveform.png'
p10
I1346986168
sS'/Users/lolium/SEttlers-of-Apocalypse/data/button.png'
p11
I1353718264
sS'/Users/lolium/SEttlers-of-Apocalypse/data/Iw2DStrings.group'
p12
I1355949293
sS'/Users/lolium/SEttlers-of-Apocalypse/data/wheel.png'
p13
I1353720182
sS'/Users/lolium/SEttlers-of-Apocalypse/data/gradient.png'
p14
I1355982270
sS'/Users/lolium/SEttlers-of-Apocalypse/data/pulse.png'
p15
I1345781521
sS'/Users/lolium/SEttlers-of-Apocalypse/data/Waveform2.png'
p16
I1353692892
sS'/Users/lolium/SEttlers-of-Apocalypse/data/button_glow.png'
p17
I1353716447
sS'/Users/lolium/SEttlers-of-Apocalypse/data/Fonts/24.tga'
p18
I1355949152
sS'/Users/lolium/SEttlers-of-Apocalypse/data/Fonts/24.gxfont'
p19
I1355949153
s.